; Function Attrs: mustprogress uwtable
define void @_ZN2cv4gapi4mulCERKNS_4GMatERKNS_7GScalarEi(ptr dead_on_unwind noalias writable sret(%"class.cv::GMat") align 8 %0, ptr noundef nonnull readonly align 8 captures(none) dereferenceable(16) %1, ptr noundef nonnull readonly align 8 captures(none) dereferenceable(16) %2, i32 noundef %3) local_unnamed_addr #3 personality ptr @__gxx_personality_v0 {
  %5 = alloca %"class.cv::GMat", align 8
  %6 = alloca %"class.cv::GScalar", align 8
  %7 = load ptr, ptr %1, align 8, !tbaa !3
  store ptr %7, ptr %5, align 8, !tbaa !3
  %8 = getelementptr inbounds nuw i8, ptr %5, i64 8
  %9 = getelementptr inbounds nuw i8, ptr %1, i64 8
  %10 = load ptr, ptr %9, align 8, !tbaa !11
  store ptr %10, ptr %8, align 8, !tbaa !11
  %.not.i.i.i.i = icmp eq ptr %10, null
  br i1 %.not.i.i.i.i, label %_ZN2cv4GMatC2ERKS0_.exit, label %11

11:                                               ; preds = %4
  %12 = getelementptr inbounds nuw i8, ptr %10, i64 8
  %13 = load i8, ptr @__libc_single_threaded, align 1, !tbaa !12
  %.not.i.i.i.i.i = icmp eq i8 %13, 0
  br i1 %.not.i.i.i.i.i, label %17, label %14

14:                                               ; preds = %11
  %15 = load i32, ptr %12, align 4, !tbaa !13
  %16 = add nsw i32 %15, 1
  store i32 %16, ptr %12, align 4, !tbaa !13
  br label %_ZN2cv4GMatC2ERKS0_.exit

17:                                               ; preds = %11
  %18 = atomicrmw volatile add ptr %12, i32 1 acq_rel, align 4
  br label %_ZN2cv4GMatC2ERKS0_.exit

_ZN2cv4GMatC2ERKS0_.exit:                         ; preds = %4, %14, %17
  %19 = load ptr, ptr %2, align 8, !tbaa !3
  store ptr %19, ptr %6, align 8, !tbaa !3
  %20 = getelementptr inbounds nuw i8, ptr %6, i64 8
  %21 = getelementptr inbounds nuw i8, ptr %2, i64 8
  %22 = load ptr, ptr %21, align 8, !tbaa !11
  store ptr %22, ptr %20, align 8, !tbaa !11
  %.not.i.i.i.i4 = icmp eq ptr %22, null
  br i1 %.not.i.i.i.i4, label %_ZN2cv7GScalarC2ERKS0_.exit, label %23

23:                                               ; preds = %_ZN2cv4GMatC2ERKS0_.exit
  %24 = getelementptr inbounds nuw i8, ptr %22, i64 8
  %25 = load i8, ptr @__libc_single_threaded, align 1, !tbaa !12
  %.not.i.i.i.i.i5 = icmp eq i8 %25, 0
  br i1 %.not.i.i.i.i.i5, label %29, label %26

26:                                               ; preds = %23
  %27 = load i32, ptr %24, align 4, !tbaa !13
  %28 = add nsw i32 %27, 1
  store i32 %28, ptr %24, align 4, !tbaa !13
  br label %_ZN2cv7GScalarC2ERKS0_.exit

29:                                               ; preds = %23
  %30 = atomicrmw volatile add ptr %24, i32 1 acq_rel, align 4
  br label %_ZN2cv7GScalarC2ERKS0_.exit

_ZN2cv7GScalarC2ERKS0_.exit:                      ; preds = %_ZN2cv4GMatC2ERKS0_.exit, %26, %29
  invoke void @_ZN2cv11GKernelTypeINS_4gapi4core5GMulCESt8functionIFNS_4GMatES5_NS_7GScalarEiEEE2onES5_S6_i(ptr dead_on_unwind writable sret(%"class.cv::GMat") align 8 %0, ptr noundef nonnull %5, ptr noundef nonnull %6, i32 noundef %3)
          to label %31 unwind label %76

31:                                               ; preds = %_ZN2cv7GScalarC2ERKS0_.exit
  %32 = load ptr, ptr %20, align 8, !tbaa !11
  %.not.i.i.i = icmp eq ptr %32, null
  br i1 %.not.i.i.i, label %_ZN2cv7GScalarD2Ev.exit, label %33

33:                                               ; preds = %31
  %34 = getelementptr inbounds nuw i8, ptr %32, i64 8
  %35 = load atomic i64, ptr %34 acquire, align 8
  %36 = icmp eq i64 %35, 4294967297
  %37 = trunc i64 %35 to i32
  br i1 %36, label %38, label %46

38:                                               ; preds = %33
  store i32 0, ptr %34, align 8, !tbaa !15
  %39 = getelementptr inbounds nuw i8, ptr %32, i64 12
  store i32 0, ptr %39, align 4, !tbaa !17
  %40 = load ptr, ptr %32, align 8, !tbaa !18
  %41 = getelementptr inbounds nuw i8, ptr %40, i64 16
  %42 = load ptr, ptr %41, align 8
  call void %42(ptr noundef nonnull align 8 dereferenceable(16) %32) #23
  %43 = load ptr, ptr %32, align 8, !tbaa !18
  %44 = getelementptr inbounds nuw i8, ptr %43, i64 24
  %45 = load ptr, ptr %44, align 8
  call void %45(ptr noundef nonnull align 8 dereferenceable(16) %32) #23
  br label %_ZN2cv7GScalarD2Ev.exit

46:                                               ; preds = %33
  %47 = load i8, ptr @__libc_single_threaded, align 1, !tbaa !12
  %.not.i.i.i.i6 = icmp eq i8 %47, 0
  br i1 %.not.i.i.i.i6, label %50, label %48

48:                                               ; preds = %46
  %49 = add nsw i32 %37, -1
  store i32 %49, ptr %34, align 4, !tbaa !13
  br label %_ZN9__gnu_cxx27__exchange_and_add_dispatchEPii.exit.i.i.i.i

50:                                               ; preds = %46
  %51 = atomicrmw volatile add ptr %34, i32 -1 acq_rel, align 4
  br label %_ZN9__gnu_cxx27__exchange_and_add_dispatchEPii.exit.i.i.i.i

_ZN9__gnu_cxx27__exchange_and_add_dispatchEPii.exit.i.i.i.i: ; preds = %50, %48
  %.0.i.i.i.i.i = phi i32 [ %37, %48 ], [ %51, %50 ]
  %52 = icmp eq i32 %.0.i.i.i.i.i, 1
  br i1 %52, label %53, label %_ZN2cv7GScalarD2Ev.exit, !prof !20

53:                                               ; preds = %_ZN9__gnu_cxx27__exchange_and_add_dispatchEPii.exit.i.i.i.i
  call void @_ZNSt16_Sp_counted_baseILN9__gnu_cxx12_Lock_policyE2EE24_M_release_last_use_coldEv(ptr noundef nonnull align 8 dereferenceable(16) %32) #23
  br label %_ZN2cv7GScalarD2Ev.exit

_ZN2cv7GScalarD2Ev.exit:                          ; preds = %31, %38, %_ZN9__gnu_cxx27__exchange_and_add_dispatchEPii.exit.i.i.i.i, %53
  %54 = load ptr, ptr %8, align 8, !tbaa !11
  %.not.i.i.i7 = icmp eq ptr %54, null
  br i1 %.not.i.i.i7, label %_ZN2cv4GMatD2Ev.exit, label %55

55:                                               ; preds = %_ZN2cv7GScalarD2Ev.exit
  %56 = getelementptr inbounds nuw i8, ptr %54, i64 8
  %57 = load atomic i64, ptr %56 acquire, align 8
  %58 = icmp eq i64 %57, 4294967297
  %59 = trunc i64 %57 to i32
  br i1 %58, label %60, label %68

60:                                               ; preds = %55
  store i32 0, ptr %56, align 8, !tbaa !15
  %61 = getelementptr inbounds nuw i8, ptr %54, i64 12
  store i32 0, ptr %61, align 4, !tbaa !17
  %62 = load ptr, ptr %54, align 8, !tbaa !18
  %63 = getelementptr inbounds nuw i8, ptr %62, i64 16
  %64 = load ptr, ptr %63, align 8
  call void %64(ptr noundef nonnull align 8 dereferenceable(16) %54) #23
  %65 = load ptr, ptr %54, align 8, !tbaa !18
  %66 = getelementptr inbounds nuw i8, ptr %65, i64 24
  %67 = load ptr, ptr %66, align 8
  call void %67(ptr noundef nonnull align 8 dereferenceable(16) %54) #23
  br label %_ZN2cv4GMatD2Ev.exit

68:                                               ; preds = %55
  %69 = load i8, ptr @__libc_single_threaded, align 1, !tbaa !12
  %.not.i.i.i.i8 = icmp eq i8 %69, 0
  br i1 %.not.i.i.i.i8, label %72, label %70

70:                                               ; preds = %68
  %71 = add nsw i32 %59, -1
  store i32 %71, ptr %56, align 4, !tbaa !13
  br label %_ZN9__gnu_cxx27__exchange_and_add_dispatchEPii.exit.i.i.i.i9

72:                                               ; preds = %68
  %73 = atomicrmw volatile add ptr %56, i32 -1 acq_rel, align 4
  br label %_ZN9__gnu_cxx27__exchange_and_add_dispatchEPii.exit.i.i.i.i9

_ZN9__gnu_cxx27__exchange_and_add_dispatchEPii.exit.i.i.i.i9: ; preds = %72, %70
  %.0.i.i.i.i.i10 = phi i32 [ %59, %70 ], [ %73, %72 ]
  %74 = icmp eq i32 %.0.i.i.i.i.i10, 1
  br i1 %74, label %75, label %_ZN2cv4GMatD2Ev.exit, !prof !20

75:                                               ; preds = %_ZN9__gnu_cxx27__exchange_and_add_dispatchEPii.exit.i.i.i.i9
  call void @_ZNSt16_Sp_counted_baseILN9__gnu_cxx12_Lock_policyE2EE24_M_release_last_use_coldEv(ptr noundef nonnull align 8 dereferenceable(16) %54) #23
  br label %_ZN2cv4GMatD2Ev.exit

_ZN2cv4GMatD2Ev.exit:                             ; preds = %_ZN2cv7GScalarD2Ev.exit, %60, %_ZN9__gnu_cxx27__exchange_and_add_dispatchEPii.exit.i.i.i.i9, %75
  ret void

76:                                               ; preds = %_ZN2cv7GScalarC2ERKS0_.exit
  %77 = landingpad { ptr, i32 }
          cleanup
  call void @_ZN2cv7GScalarD2Ev(ptr noundef nonnull align 8 dereferenceable(16) %6) #23
  call void @_ZN2cv4GMatD2Ev(ptr noundef nonnull align 8 dereferenceable(16) %5) #23
  resume { ptr, i32 } %77
}